target datalayout = "e-m:e-p270:32:32-p271:32:32-p272:64:64-i64:64-i128:128-f80:128-n8:16:32:64-S128"
target triple = "x86_64-unknown-linux-gnu"

%struct.flock64 = type { i16, i16, i64, i64, i32 }
%struct.target_flock = type { i16, i16, i64, i64, i32 }

; Function Attrs: nounwind sspstrong uwtable
define internal void @stl_he_p(ptr noundef %ptr, i32 noundef %v) #0 {
entry:
  %ptr.addr = alloca ptr, align 8
  %v.addr = alloca i32, align 4
  store ptr %ptr, ptr %ptr.addr, align 8
  store i32 %v, ptr %v.addr, align 4
  %0 = load ptr, ptr %ptr.addr, align 8
  call void @llvm.memcpy.p0.p0.i64(ptr align 1 %0, ptr align 4 %v.addr, i64 4, i1 false)
  ret void
}

; Function Attrs: nounwind sspstrong uwtable
define internal void @stq_he_p(ptr noundef %ptr, i64 noundef %v) #0 {
entry:
  %ptr.addr = alloca ptr, align 8
  %v.addr = alloca i64, align 8
  store ptr %ptr, ptr %ptr.addr, align 8
  store i64 %v, ptr %v.addr, align 8
  %0 = load ptr, ptr %ptr.addr, align 8
  call void @llvm.memcpy.p0.p0.i64(ptr align 1 %0, ptr align 8 %v.addr, i64 8, i1 false)
  ret void
}

; Function Attrs: nounwind sspstrong uwtable
define internal void @stw_he_p(ptr noundef %ptr, i16 noundef zeroext %v) #0 {
entry:
  %ptr.addr = alloca ptr, align 8
  %v.addr = alloca i16, align 2
  store ptr %ptr, ptr %ptr.addr, align 8
  store i16 %v, ptr %v.addr, align 2
  %0 = load ptr, ptr %ptr.addr, align 8
  call void @llvm.memcpy.p0.p0.i64(ptr align 1 %0, ptr align 2 %v.addr, i64 2, i1 false)
  ret void
}

; Function Attrs: nounwind sspstrong uwtable
define internal void @unlock_user(ptr noundef %host_ptr, i64 noundef %guest_addr, i64 noundef %len) #0 {
entry:
  %host_ptr.addr = alloca ptr, align 8
  %guest_addr.addr = alloca i64, align 8
  %len.addr = alloca i64, align 8
  store ptr %host_ptr, ptr %host_ptr.addr, align 8
  store i64 %guest_addr, ptr %guest_addr.addr, align 8
  store i64 %len, ptr %len.addr, align 8
  ret void
}

; Function Attrs: nounwind sspstrong uwtable
define internal void @stl_le_p(ptr noundef %ptr, i32 noundef %v) #0 {
entry:
  %ptr.addr = alloca ptr, align 8
  %v.addr = alloca i32, align 4
  store ptr %ptr, ptr %ptr.addr, align 8
  store i32 %v, ptr %v.addr, align 4
  %0 = load ptr, ptr %ptr.addr, align 8
  %1 = load i32, ptr %v.addr, align 4
  call void @stl_he_p(ptr noundef %0, i32 noundef %1)
  ret void
}

; Function Attrs: nounwind sspstrong uwtable
define internal void @stq_le_p(ptr noundef %ptr, i64 noundef %v) #0 {
entry:
  %ptr.addr = alloca ptr, align 8
  %v.addr = alloca i64, align 8
  store ptr %ptr, ptr %ptr.addr, align 8
  store i64 %v, ptr %v.addr, align 8
  %0 = load ptr, ptr %ptr.addr, align 8
  %1 = load i64, ptr %v.addr, align 8
  call void @stq_he_p(ptr noundef %0, i64 noundef %1)
  ret void
}

; Function Attrs: nounwind sspstrong uwtable
define internal void @stw_le_p(ptr noundef %ptr, i16 noundef zeroext %v) #0 {
entry:
  %ptr.addr = alloca ptr, align 8
  %v.addr = alloca i16, align 2
  store ptr %ptr, ptr %ptr.addr, align 8
  store i16 %v, ptr %v.addr, align 2
  %0 = load ptr, ptr %ptr.addr, align 8
  %1 = load i16, ptr %v.addr, align 2
  call void @stw_he_p(ptr noundef %0, i16 noundef zeroext %1)
  ret void
}

; Function Attrs: nounwind sspstrong uwtable
define internal i32 @host_to_target_flock(i32 noundef %type) #0 {
entry:
  %retval = alloca i32, align 4
  %type.addr = alloca i32, align 4
  store i32 %type, ptr %type.addr, align 4
  %0 = load i32, ptr %type.addr, align 4
  switch i32 %0, label %sw.epilog [
    i32 0, label %sw.bb
    i32 1, label %sw.bb1
    i32 2, label %sw.bb2
  ]

sw.bb:                                            ; preds = %entry
  store i32 0, ptr %retval, align 4
  br label %return

sw.bb1:                                           ; preds = %entry
  store i32 1, ptr %retval, align 4
  br label %return

sw.bb2:                                           ; preds = %entry
  store i32 2, ptr %retval, align 4
  br label %return

sw.epilog:                                        ; preds = %entry
  %1 = load i32, ptr %type.addr, align 4
  store i32 %1, ptr %retval, align 4
  br label %return

return:                                           ; preds = %sw.epilog, %sw.bb2, %sw.bb1, %sw.bb
  %2 = load i32, ptr %retval, align 4
  ret i32 %2
}

; Function Attrs: nounwind sspstrong uwtable
define internal i64 @copy_to_user_flock(i64 noundef %target_flock_addr, ptr noundef %fl) #0 {
entry:
  %retval = alloca i64, align 8
  %target_flock_addr.addr = alloca i64, align 8
  %fl.addr = alloca ptr, align 8
  %target_fl = alloca ptr, align 8
  %l_type = alloca i16, align 2
  store i64 %target_flock_addr, ptr %target_flock_addr.addr, align 8
  store ptr %fl, ptr %fl.addr, align 8
  %0 = load i64, ptr %target_flock_addr.addr, align 8
  %call = call ptr @lock_user(i32 noundef 3, i64 noundef %0, i64 noundef 32, i1 noundef zeroext false)
  store ptr %call, ptr %target_fl, align 8
  %tobool = icmp ne ptr %call, null
  br i1 %tobool, label %if.end, label %if.then

if.then:                                          ; preds = %entry
  store i64 -14, ptr %retval, align 8
  br label %return

if.end:                                           ; preds = %entry
  %1 = load ptr, ptr %fl.addr, align 8
  %l_type1 = getelementptr inbounds %struct.flock64, ptr %1, i32 0, i32 0
  %2 = load i16, ptr %l_type1, align 8
  %conv = sext i16 %2 to i32
  %call2 = call i32 @host_to_target_flock(i32 noundef %conv)
  %conv3 = trunc i32 %call2 to i16
  store i16 %conv3, ptr %l_type, align 2
  br label %do.body

do.body:                                          ; preds = %if.end
  %3 = load ptr, ptr %target_fl, align 8
  %l_type4 = getelementptr inbounds %struct.target_flock, ptr %3, i32 0, i32 0
  %4 = load i16, ptr %l_type, align 2
  call void @stw_le_p(ptr noundef %l_type4, i16 noundef zeroext %4)
  br label %do.end

do.end:                                           ; preds = %do.body
  br label %do.body5

do.body5:                                         ; preds = %do.end
  %5 = load ptr, ptr %target_fl, align 8
  %l_whence = getelementptr inbounds %struct.target_flock, ptr %5, i32 0, i32 1
  %6 = load ptr, ptr %fl.addr, align 8
  %l_whence6 = getelementptr inbounds %struct.flock64, ptr %6, i32 0, i32 1
  %7 = load i16, ptr %l_whence6, align 2
  call void @stw_le_p(ptr noundef %l_whence, i16 noundef zeroext %7)
  br label %do.end7

do.end7:                                          ; preds = %do.body5
  br label %do.body8

do.body8:                                         ; preds = %do.end7
  %8 = load ptr, ptr %target_fl, align 8
  %l_start = getelementptr inbounds %struct.target_flock, ptr %8, i32 0, i32 2
  %9 = load ptr, ptr %fl.addr, align 8
  %l_start9 = getelementptr inbounds %struct.flock64, ptr %9, i32 0, i32 2
  %10 = load i64, ptr %l_start9, align 8
  call void @stq_le_p(ptr noundef %l_start, i64 noundef %10)
  br label %do.end10

do.end10:                                         ; preds = %do.body8
  br label %do.body11

do.body11:                                        ; preds = %do.end10
  %11 = load ptr, ptr %target_fl, align 8
  %l_len = getelementptr inbounds %struct.target_flock, ptr %11, i32 0, i32 3
  %12 = load ptr, ptr %fl.addr, align 8
  %l_len12 = getelementptr inbounds %struct.flock64, ptr %12, i32 0, i32 3
  %13 = load i64, ptr %l_len12, align 8
  call void @stq_le_p(ptr noundef %l_len, i64 noundef %13)
  br label %do.end13

do.end13:                                         ; preds = %do.body11
  br label %do.body14

do.body14:                                        ; preds = %do.end13
  %14 = load ptr, ptr %target_fl, align 8
  %l_pid = getelementptr inbounds %struct.target_flock, ptr %14, i32 0, i32 4
  %15 = load ptr, ptr %fl.addr, align 8
  %l_pid15 = getelementptr inbounds %struct.flock64, ptr %15, i32 0, i32 4
  %16 = load i32, ptr %l_pid15, align 8
  call void @stl_le_p(ptr noundef %l_pid, i32 noundef %16)
  br label %do.end16

do.end16:                                         ; preds = %do.body14
  %17 = load ptr, ptr %target_fl, align 8
  %18 = load i64, ptr %target_flock_addr.addr, align 8
  call void @unlock_user(ptr noundef %17, i64 noundef %18, i64 noundef 32)
  store i64 0, ptr %retval, align 8
  br label %return

return:                                           ; preds = %do.end16, %if.then
  %19 = load i64, ptr %retval, align 8
  ret i64 %19
}